ARM GAS  C:\Users\Lenovo\AppData\Local\Temp\ccGpRDOg.s 			page 1


   1              		.cpu cortex-m3
   2              		.eabi_attribute 20, 1
   3              		.eabi_attribute 21, 1
   4              		.eabi_attribute 23, 3
   5              		.eabi_attribute 24, 1
   6              		.eabi_attribute 25, 1
   7              		.eabi_attribute 26, 1
   8              		.eabi_attribute 30, 1
   9              		.eabi_attribute 34, 1
  10              		.eabi_attribute 18, 4
  11              		.file	"driver_keypad.c"
  12              		.text
  13              	.Ltext0:
  14              		.cfi_sections	.debug_frame
  15              		.section	.text.KEY_TimerCallback,"ax",%progbits
  16              		.align	1
  17              		.arch armv7-m
  18              		.syntax unified
  19              		.thumb
  20              		.thumb_func
  21              		.fpu softvfp
  23              	KEY_TimerCallback:
  24              	.LVL0:
  25              	.LFB71:
  26              		.file 1 "../Core/Src/driver_keypad.c"
   1:../Core/Src/driver_keypad.c **** 
  27              		.loc 1 81 1 view -0
  28              		.cfi_startproc
  29              		@ args = 0, pretend = 0, frame = 0
  30              		@ frame_needed = 0, uses_anonymous_args = 0
  31              		.loc 1 82 2 view .LVU1
  32              		.loc 1 82 6 is_stmt 0 view .LVU2
  33 0000 0E4B     		ldr	r3, .L8
  34 0002 1B78     		ldrb	r3, [r3]	@ zero_extendqisi2
  35              		.loc 1 82 5 view .LVU3
  36 0004 C3B9     		cbnz	r3, .L5
  37              		.loc 1 81 1 view .LVU4
  38 0006 10B5     		push	{r4, lr}
  39              	.LCFI0:
  40              		.cfi_def_cfa_offset 8
  41              		.cfi_offset 4, -8
  42              		.cfi_offset 14, -4
  43 0008 82B0     		sub	sp, sp, #8
  44              	.LCFI1:
  45              		.cfi_def_cfa_offset 16
  46 000a 0446     		mov	r4, r0
  47              		.loc 1 84 3 is_stmt 1 view .LVU5
  48              		.loc 1 84 14 is_stmt 0 view .LVU6
  49 000c 0C4B     		ldr	r3, .L8+4
  50 000e 9B68     		ldr	r3, [r3, #8]
  51              		.loc 1 84 6 view .LVU7
  52 0010 13F0700F 		tst	r3, #112
  53 0014 04D1     		bne	.L3
  54              		.loc 1 86 4 is_stmt 1 view .LVU8
  55              		.loc 1 86 25 is_stmt 0 view .LVU9
  56 0016 094B     		ldr	r3, .L8
  57 0018 0122     		movs	r2, #1
ARM GAS  C:\Users\Lenovo\AppData\Local\Temp\ccGpRDOg.s 			page 2


  58 001a 1A70     		strb	r2, [r3]
  59              	.LVL1:
  60              	.L1:
  61              		.loc 1 93 1 view .LVU10
  62 001c 02B0     		add	sp, sp, #8
  63              	.LCFI2:
  64              		.cfi_remember_state
  65              		.cfi_def_cfa_offset 8
  66              		@ sp needed
  67 001e 10BD     		pop	{r4, pc}
  68              	.LVL2:
  69              	.L3:
  70              	.LCFI3:
  71              		.cfi_restore_state
  72              		.loc 1 90 4 is_stmt 1 view .LVU11
  73 0020 084B     		ldr	r3, .L8+8
  74 0022 9847     		blx	r3
  75              	.LVL3:
  76              		.loc 1 90 4 is_stmt 0 view .LVU12
  77 0024 0246     		mov	r2, r0
  78 0026 4FF0FF33 		mov	r3, #-1
  79 002a 0093     		str	r3, [sp]
  80 002c 0023     		movs	r3, #0
  81 002e 0121     		movs	r1, #1
  82 0030 2046     		mov	r0, r4
  83 0032 054C     		ldr	r4, .L8+12
  84              	.LVL4:
  85              		.loc 1 90 4 view .LVU13
  86 0034 A047     		blx	r4
  87              	.LVL5:
  88              		.loc 1 93 1 view .LVU14
  89 0036 F1E7     		b	.L1
  90              	.LVL6:
  91              	.L5:
  92              	.LCFI4:
  93              		.cfi_def_cfa_offset 0
  94              		.cfi_restore 4
  95              		.cfi_restore 14
  96              		.loc 1 93 1 view .LVU15
  97 0038 7047     		bx	lr
  98              	.L9:
  99 003a 00BF     		.align	2
 100              	.L8:
 101 003c 00000000 		.word	.LANCHOR0
 102 0040 000C0140 		.word	1073810432
 103 0044 00000000 		.word	xTaskGetTickCount
 104 0048 00000000 		.word	xTimerGenericCommand
 105              		.cfi_endproc
 106              	.LFE71:
 108              		.section	.text.KEY_Task,"ax",%progbits
 109              		.align	1
 110              		.syntax unified
 111              		.thumb
 112              		.thumb_func
 113              		.fpu softvfp
 115              	KEY_Task:
 116              	.LFB69:
ARM GAS  C:\Users\Lenovo\AppData\Local\Temp\ccGpRDOg.s 			page 3


 117              		.loc 1 28 1 is_stmt 1 view -0
 118              		.cfi_startproc
 119              		@ args = 0, pretend = 0, frame = 0
 120              		@ frame_needed = 0, uses_anonymous_args = 0
 121              	.LVL7:
 122              		.loc 1 28 1 is_stmt 0 view .LVU17
 123 0000 2DE9F043 		push	{r4, r5, r6, r7, r8, r9, lr}
 124              	.LCFI5:
 125              		.cfi_def_cfa_offset 28
 126              		.cfi_offset 4, -28
 127              		.cfi_offset 5, -24
 128              		.cfi_offset 6, -20
 129              		.cfi_offset 7, -16
 130              		.cfi_offset 8, -12
 131              		.cfi_offset 9, -8
 132              		.cfi_offset 14, -4
 133 0004 83B0     		sub	sp, sp, #12
 134              	.LCFI6:
 135              		.cfi_def_cfa_offset 40
 136 0006 39E0     		b	.L12
 137              	.LVL8:
 138              	.L14:
 139              	.LBB2:
 140              	.LBB3:
 141              	.LBB4:
 142              		.loc 1 43 42 is_stmt 1 discriminator 2 view .LVU18
 143              		.loc 1 43 48 is_stmt 0 discriminator 2 view .LVU19
 144 0008 0134     		adds	r4, r4, #1
 145              	.LVL9:
 146              		.loc 1 43 48 discriminator 2 view .LVU20
 147 000a E4B2     		uxtb	r4, r4
 148              	.LVL10:
 149              	.L13:
 150              		.loc 1 43 30 is_stmt 1 discriminator 1 view .LVU21
 151              		.loc 1 43 5 is_stmt 0 discriminator 1 view .LVU22
 152 000c 022C     		cmp	r4, #2
 153 000e 24D8     		bhi	.L20
 154              		.loc 1 45 6 is_stmt 1 view .LVU23
 155              		.loc 1 45 24 is_stmt 0 view .LVU24
 156 0010 0123     		movs	r3, #1
 157 0012 A340     		lsls	r3, r3, r4
 158              		.loc 1 45 9 view .LVU25
 159 0014 3342     		tst	r3, r6
 160 0016 F7D0     		beq	.L14
 161              		.loc 1 47 7 is_stmt 1 view .LVU26
 162              		.loc 1 47 28 is_stmt 0 view .LVU27
 163 0018 4FF00008 		mov	r8, #0
 164 001c 1D4B     		ldr	r3, .L22
 165 001e 83F80080 		strb	r8, [r3]
 166              		.loc 1 48 7 is_stmt 1 view .LVU28
 167 0022 1D4B     		ldr	r3, .L22+4
 168 0024 D3F80090 		ldr	r9, [r3]
 169 0028 1C4B     		ldr	r3, .L22+8
 170 002a 9847     		blx	r3
 171              	.LVL11:
 172 002c 0246     		mov	r2, r0
 173 002e 4FF0FF33 		mov	r3, #-1
ARM GAS  C:\Users\Lenovo\AppData\Local\Temp\ccGpRDOg.s 			page 4


 174 0032 0093     		str	r3, [sp]
 175 0034 4346     		mov	r3, r8
 176 0036 0121     		movs	r1, #1
 177 0038 4846     		mov	r0, r9
 178 003a DFF86490 		ldr	r9, .L22+12
 179 003e C847     		blx	r9
 180              	.LVL12:
 181              		.loc 1 49 7 view .LVU29
 182 0040 8521     		movs	r1, #133
 183 0042 4046     		mov	r0, r8
 184 0044 DFF85C80 		ldr	r8, .L22+16
 185 0048 C047     		blx	r8
 186              	.LVL13:
 187              		.loc 1 51 7 view .LVU30
 188              		.loc 1 51 48 is_stmt 0 view .LVU31
 189 004a 07EB4702 		add	r2, r7, r7, lsl #1
 190 004e 164B     		ldr	r3, .L22+20
 191 0050 1344     		add	r3, r3, r2
 192              		.loc 1 51 7 view .LVU32
 193 0052 195D     		ldrb	r1, [r3, r4]	@ zero_extendqisi2
 194 0054 0120     		movs	r0, #1
 195 0056 C047     		blx	r8
 196              	.LVL14:
 197 0058 D6E7     		b	.L14
 198              	.L20:
 199              		.loc 1 51 7 view .LVU33
 200              	.LBE4:
 201              	.LBE3:
 202              		.loc 1 35 35 is_stmt 1 discriminator 2 view .LVU34
 203              		.loc 1 35 38 is_stmt 0 discriminator 2 view .LVU35
 204 005a 0135     		adds	r5, r5, #1
 205              	.LVL15:
 206              		.loc 1 35 38 discriminator 2 view .LVU36
 207 005c EDB2     		uxtb	r5, r5
 208              	.LVL16:
 209              	.L11:
 210              		.loc 1 35 26 is_stmt 1 discriminator 1 view .LVU37
 211              		.loc 1 35 4 is_stmt 0 discriminator 1 view .LVU38
 212 005e 032D     		cmp	r5, #3
 213 0060 09D8     		bhi	.L21
 214              	.LBB6:
 215              		.loc 1 37 5 is_stmt 1 view .LVU39
 216              		.loc 1 37 23 is_stmt 0 view .LVU40
 217 0062 2F46     		mov	r7, r5
 218 0064 0123     		movs	r3, #1
 219 0066 AB40     		lsls	r3, r3, r5
 220              		.loc 1 37 16 view .LVU41
 221 0068 104A     		ldr	r2, .L22+24
 222 006a D360     		str	r3, [r2, #12]
 223              		.loc 1 41 5 is_stmt 1 view .LVU42
 224              		.loc 1 41 29 is_stmt 0 view .LVU43
 225 006c 9668     		ldr	r6, [r2, #8]
 226              		.loc 1 41 14 view .LVU44
 227 006e C6F30216 		ubfx	r6, r6, #4, #3
 228              	.LVL17:
 229              		.loc 1 43 5 is_stmt 1 view .LVU45
 230              	.LBB5:
ARM GAS  C:\Users\Lenovo\AppData\Local\Temp\ccGpRDOg.s 			page 5


 231              		.loc 1 43 10 view .LVU46
 232              		.loc 1 43 18 is_stmt 0 view .LVU47
 233 0072 0024     		movs	r4, #0
 234              		.loc 1 43 5 view .LVU48
 235 0074 CAE7     		b	.L13
 236              	.LVL18:
 237              	.L21:
 238              		.loc 1 43 5 view .LVU49
 239              	.LBE5:
 240              	.LBE6:
 241              	.LBE2:
 242              		.loc 1 55 4 is_stmt 1 view .LVU50
 243              		.loc 1 55 15 is_stmt 0 view .LVU51
 244 0076 0D4B     		ldr	r3, .L22+24
 245 0078 0F22     		movs	r2, #15
 246 007a DA60     		str	r2, [r3, #12]
 247              	.LVL19:
 248              	.L12:
 249              		.loc 1 29 2 is_stmt 1 view .LVU52
 250              		.loc 1 31 3 view .LVU53
 251 007c 4FF0FF31 		mov	r1, #-1
 252 0080 0120     		movs	r0, #1
 253 0082 0B4B     		ldr	r3, .L22+28
 254 0084 9847     		blx	r3
 255              	.LVL20:
 256              		.loc 1 33 3 view .LVU54
 257              		.loc 1 33 28 is_stmt 0 view .LVU55
 258 0086 034B     		ldr	r3, .L22
 259 0088 1B78     		ldrb	r3, [r3]	@ zero_extendqisi2
 260              		.loc 1 33 6 view .LVU56
 261 008a 012B     		cmp	r3, #1
 262 008c F6D1     		bne	.L12
 263              	.LBB7:
 264              		.loc 1 35 17 view .LVU57
 265 008e 0025     		movs	r5, #0
 266 0090 E5E7     		b	.L11
 267              	.L23:
 268 0092 00BF     		.align	2
 269              	.L22:
 270 0094 00000000 		.word	.LANCHOR0
 271 0098 00000000 		.word	.LANCHOR1
 272 009c 00000000 		.word	xTaskGetTickCount
 273 00a0 00000000 		.word	xTimerGenericCommand
 274 00a4 00000000 		.word	LCD_CommandEnqueue
 275 00a8 00000000 		.word	.LANCHOR2
 276 00ac 000C0140 		.word	1073810432
 277 00b0 00000000 		.word	ulTaskNotifyTake
 278              	.LBE7:
 279              		.cfi_endproc
 280              	.LFE69:
 282              		.section	.text.HAL_GPIO_EXTI_Callback,"ax",%progbits
 283              		.align	1
 284              		.global	HAL_GPIO_EXTI_Callback
 285              		.syntax unified
 286              		.thumb
 287              		.thumb_func
 288              		.fpu softvfp
ARM GAS  C:\Users\Lenovo\AppData\Local\Temp\ccGpRDOg.s 			page 6


 290              	HAL_GPIO_EXTI_Callback:
 291              	.LVL21:
 292              	.LFB70:
 293              		.loc 1 61 1 is_stmt 1 view -0
 294              		.cfi_startproc
 295              		@ args = 0, pretend = 0, frame = 8
 296              		@ frame_needed = 0, uses_anonymous_args = 0
 297              		.loc 1 61 1 is_stmt 0 view .LVU59
 298 0000 00B5     		push	{lr}
 299              	.LCFI7:
 300              		.cfi_def_cfa_offset 4
 301              		.cfi_offset 14, -4
 302 0002 83B0     		sub	sp, sp, #12
 303              	.LCFI8:
 304              		.cfi_def_cfa_offset 16
 305              		.loc 1 62 2 is_stmt 1 view .LVU60
 306              		.loc 1 62 5 is_stmt 0 view .LVU61
 307 0004 8028     		cmp	r0, #128
 308 0006 08D0     		beq	.L30
 309              		.loc 1 68 7 is_stmt 1 view .LVU62
 310              		.loc 1 68 10 is_stmt 0 view .LVU63
 311 0008 B0F5006F 		cmp	r0, #2048
 312 000c 1AD0     		beq	.L31
 313              		.loc 1 73 7 is_stmt 1 view .LVU64
 314              		.loc 1 73 10 is_stmt 0 view .LVU65
 315 000e B0F5805F 		cmp	r0, #4096
 316 0012 1DD0     		beq	.L32
 317              	.LVL22:
 318              	.L24:
 319              		.loc 1 78 1 view .LVU66
 320 0014 03B0     		add	sp, sp, #12
 321              	.LCFI9:
 322              		.cfi_remember_state
 323              		.cfi_def_cfa_offset 4
 324              		@ sp needed
 325 0016 5DF804FB 		ldr	pc, [sp], #4
 326              	.LVL23:
 327              	.L30:
 328              	.LCFI10:
 329              		.cfi_restore_state
 330              	.LBB8:
 331              		.loc 1 64 3 is_stmt 1 view .LVU67
 332              		.loc 1 64 14 is_stmt 0 view .LVU68
 333 001a 0023     		movs	r3, #0
 334 001c 0193     		str	r3, [sp, #4]
 335              		.loc 1 65 3 is_stmt 1 view .LVU69
 336 001e 01A9     		add	r1, sp, #4
 337 0020 0E4B     		ldr	r3, .L33
 338 0022 1868     		ldr	r0, [r3]
 339              	.LVL24:
 340              		.loc 1 65 3 is_stmt 0 view .LVU70
 341 0024 0E4B     		ldr	r3, .L33+4
 342 0026 9847     		blx	r3
 343              	.LVL25:
 344              		.loc 1 66 3 is_stmt 1 view .LVU71
 345 0028 019B     		ldr	r3, [sp, #4]
 346 002a 002B     		cmp	r3, #0
ARM GAS  C:\Users\Lenovo\AppData\Local\Temp\ccGpRDOg.s 			page 7


 347 002c F2D0     		beq	.L24
 348              		.loc 1 66 3 discriminator 1 view .LVU72
 349 002e 4FF0E023 		mov	r3, #-536813568
 350 0032 4FF08052 		mov	r2, #268435456
 351 0036 C3F8042D 		str	r2, [r3, #3332]
 352              		.loc 1 66 3 discriminator 1 view .LVU73
 353              		.syntax unified
 354              	@ 66 "Core/Src/driver_keypad.c" 1
 355 003a BFF34F8F 		dsb
 356              	@ 0 "" 2
 357              		.loc 1 66 3 discriminator 1 view .LVU74
 358              	@ 66 "Core/Src/driver_keypad.c" 1
 359 003e BFF36F8F 		isb
 360              	@ 0 "" 2
 361              		.loc 1 66 28 discriminator 1 view .LVU75
 362              		.thumb
 363              		.syntax unified
 364 0042 E7E7     		b	.L24
 365              	.LVL26:
 366              	.L31:
 367              		.loc 1 66 28 is_stmt 0 discriminator 1 view .LVU76
 368              	.LBE8:
 369              		.loc 1 70 3 is_stmt 1 view .LVU77
 370 0044 0748     		ldr	r0, .L33+8
 371              	.LVL27:
 372              		.loc 1 70 3 is_stmt 0 view .LVU78
 373 0046 084B     		ldr	r3, .L33+12
 374 0048 9847     		blx	r3
 375              	.LVL28:
 376              		.loc 1 71 3 is_stmt 1 view .LVU79
 377 004a 084B     		ldr	r3, .L33+16
 378 004c 9847     		blx	r3
 379              	.LVL29:
 380 004e E1E7     		b	.L24
 381              	.LVL30:
 382              	.L32:
 383              		.loc 1 75 3 view .LVU80
 384 0050 0448     		ldr	r0, .L33+8
 385              	.LVL31:
 386              		.loc 1 75 3 is_stmt 0 view .LVU81
 387 0052 074B     		ldr	r3, .L33+20
 388 0054 9847     		blx	r3
 389              	.LVL32:
 390              		.loc 1 76 3 is_stmt 1 view .LVU82
 391 0056 074B     		ldr	r3, .L33+24
 392 0058 9847     		blx	r3
 393              	.LVL33:
 394              		.loc 1 78 1 is_stmt 0 view .LVU83
 395 005a DBE7     		b	.L24
 396              	.L34:
 397              		.align	2
 398              	.L33:
 399 005c 00000000 		.word	.LANCHOR3
 400 0060 00000000 		.word	vTaskNotifyGiveFromISR
 401 0064 00000000 		.word	hadc1
 402 0068 00000000 		.word	HAL_ADC_Start_IT
 403 006c 00000000 		.word	startMotor
ARM GAS  C:\Users\Lenovo\AppData\Local\Temp\ccGpRDOg.s 			page 8


 404 0070 00000000 		.word	HAL_ADC_Stop
 405 0074 00000000 		.word	stopMotor
 406              		.cfi_endproc
 407              	.LFE70:
 409              		.section	.rodata.KEY_Init.str1.4,"aMS",%progbits,1
 410              		.align	2
 411              	.LC0:
 412 0000 4B45595F 		.ascii	"KEY_TimerHandle\000"
 412      54696D65 
 412      7248616E 
 412      646C6500 
 413              		.align	2
 414              	.LC1:
 415 0010 4B45595F 		.ascii	"KEY_Task\000"
 415      5461736B 
 415      00
 416              		.section	.text.KEY_Init,"ax",%progbits
 417              		.align	1
 418              		.global	KEY_Init
 419              		.syntax unified
 420              		.thumb
 421              		.thumb_func
 422              		.fpu softvfp
 424              	KEY_Init:
 425              	.LFB72:
 426              		.loc 1 96 1 is_stmt 1 view -0
 427              		.cfi_startproc
 428              		@ args = 0, pretend = 0, frame = 0
 429              		@ frame_needed = 0, uses_anonymous_args = 0
 430 0000 10B5     		push	{r4, lr}
 431              	.LCFI11:
 432              		.cfi_def_cfa_offset 8
 433              		.cfi_offset 4, -8
 434              		.cfi_offset 14, -4
 435 0002 82B0     		sub	sp, sp, #8
 436              	.LCFI12:
 437              		.cfi_def_cfa_offset 16
 438              		.loc 1 97 2 view .LVU85
 439              		.loc 1 97 13 is_stmt 0 view .LVU86
 440 0004 0C4B     		ldr	r3, .L37
 441 0006 0F22     		movs	r2, #15
 442 0008 DA60     		str	r2, [r3, #12]
 443              		.loc 1 98 2 is_stmt 1 view .LVU87
 444              		.loc 1 98 20 is_stmt 0 view .LVU88
 445 000a 0C4B     		ldr	r3, .L37+4
 446 000c 0093     		str	r3, [sp]
 447 000e 0023     		movs	r3, #0
 448 0010 1A46     		mov	r2, r3
 449 0012 0A21     		movs	r1, #10
 450 0014 0A48     		ldr	r0, .L37+8
 451 0016 0B4C     		ldr	r4, .L37+12
 452 0018 A047     		blx	r4
 453              	.LVL34:
 454              		.loc 1 98 18 view .LVU89
 455 001a 0B4B     		ldr	r3, .L37+16
 456 001c 1860     		str	r0, [r3]
 457              		.loc 1 100 2 is_stmt 1 view .LVU90
ARM GAS  C:\Users\Lenovo\AppData\Local\Temp\ccGpRDOg.s 			page 9


 458 001e 0B4B     		ldr	r3, .L37+20
 459 0020 0193     		str	r3, [sp, #4]
 460 0022 1623     		movs	r3, #22
 461 0024 0093     		str	r3, [sp]
 462 0026 0023     		movs	r3, #0
 463 0028 4022     		movs	r2, #64
 464 002a 0949     		ldr	r1, .L37+24
 465 002c 0948     		ldr	r0, .L37+28
 466 002e 0A4C     		ldr	r4, .L37+32
 467 0030 A047     		blx	r4
 468              	.LVL35:
 469              		.loc 1 101 1 is_stmt 0 view .LVU91
 470 0032 02B0     		add	sp, sp, #8
 471              	.LCFI13:
 472              		.cfi_def_cfa_offset 8
 473              		@ sp needed
 474 0034 10BD     		pop	{r4, pc}
 475              	.L38:
 476 0036 00BF     		.align	2
 477              	.L37:
 478 0038 000C0140 		.word	1073810432
 479 003c 00000000 		.word	KEY_TimerCallback
 480 0040 00000000 		.word	.LC0
 481 0044 00000000 		.word	xTimerCreate
 482 0048 00000000 		.word	.LANCHOR1
 483 004c 00000000 		.word	.LANCHOR3
 484 0050 10000000 		.word	.LC1
 485 0054 00000000 		.word	KEY_Task
 486 0058 00000000 		.word	xTaskCreate
 487              		.cfi_endproc
 488              	.LFE72:
 490              		.section	.bss.KEY_TaskHandle,"aw",%nobits
 491              		.align	2
 492              		.set	.LANCHOR3,. + 0
 495              	KEY_TaskHandle:
 496 0000 00000000 		.space	4
 497              		.section	.bss.KEY_TimerHandle,"aw",%nobits
 498              		.align	2
 499              		.set	.LANCHOR1,. + 0
 502              	KEY_TimerHandle:
 503 0000 00000000 		.space	4
 504              		.section	.data.KEY_PreviousReleased,"aw"
 505              		.set	.LANCHOR0,. + 0
 508              	KEY_PreviousReleased:
 509 0000 01       		.byte	1
 510              		.section	.rodata.KEY_Map,"a"
 511              		.align	2
 512              		.set	.LANCHOR2,. + 0
 515              	KEY_Map:
 516 0000 313233   		.ascii	"123"
 517 0003 343536   		.ascii	"456"
 518 0006 373839   		.ascii	"789"
 519 0009 2A3023   		.ascii	"*0#"
 520              		.text
 521              	.Letext0:
 522              		.file 2 "../c:\\users\\lenovo\\desktop\\gnu mcu\\arm-none-eabi-gcc-10.2.1-1.1\\arm-none-eabi\\incl
 523              		.file 3 "../c:\\users\\lenovo\\desktop\\gnu mcu\\arm-none-eabi-gcc-10.2.1-1.1\\arm-none-eabi\\incl
ARM GAS  C:\Users\Lenovo\AppData\Local\Temp\ccGpRDOg.s 			page 10


 524              		.file 4 "../Middlewares/Third_Party/FreeRTOS/Source/portable/GCC/ARM_CM3/portmacro.h"
 525              		.file 5 "../Middlewares/Third_Party/FreeRTOS/Source/include/task.h"
 526              		.file 6 "../Drivers/CMSIS/Device/ST/STM32F1xx/Include/stm32f103x6.h"
 527              		.file 7 "../Drivers/CMSIS/Device/ST/STM32F1xx/Include/stm32f1xx.h"
 528              		.file 8 "../Drivers/STM32F1xx_HAL_Driver/Inc/stm32f1xx_hal_def.h"
 529              		.file 9 "../Drivers/STM32F1xx_HAL_Driver/Inc/stm32f1xx_hal_dma.h"
 530              		.file 10 "../Drivers/STM32F1xx_HAL_Driver/Inc/stm32f1xx_hal_adc.h"
 531              		.file 11 "../Core/Inc/driver_lcd.h"
 532              		.file 12 "../Middlewares/Third_Party/FreeRTOS/Source/include/timers.h"
 533              		.file 13 "../Core/Inc/adc.h"
 534              		.file 14 "../Core/Inc/driver_motor.h"
ARM GAS  C:\Users\Lenovo\AppData\Local\Temp\ccGpRDOg.s 			page 11

